(lp1
S'rihanna_tweets.csv'
p2
aS'KAKA_tweets.csv'
p3
aS'arushij93_tweets.csv'
p4
aS'katyperry_tweets.csv'
p5
aS'neymarjr_tweets.csv'
p6
aS'Cristiano_tweets.csv'
p7
aS'BarackObama_tweets.csv'
p8
aS'SrBachchan_tweets.csv'
p9
aS'narendramodi_tweets.csv'
p10
aS'EmmaWatson_tweets.csv'
p11
aS'google_tweets.csv'
p12
aS'iamsrk_tweets.csv'
p13
aS'facebook_tweets.csv'
p14
a.